target datalayout = "e-m:e-p270:32:32-p271:32:32-p272:64:64-i64:64-i128:128-f80:128-n8:16:32:64-S128"
target triple = "x86_64-pc-linux-gnu"

%struct.dt_colorspaces_color_profile_t = type { i32, [512 x i8], [512 x i8], ptr, i32, i32, i32, i32, i32, i32 }

@.str.4 = private unnamed_addr constant [3 x i8] c"rb\00", align 1
@.str.11 = private unnamed_addr constant [1 x i8] zeroinitializer, align 1

; Function Attrs: nounwind uwtable
define i32 @dt_imageio_tiff_read_profile(ptr noundef %0, ptr noundef %1) #0 {
  %3 = alloca i32, align 4
  %4 = alloca ptr, align 8
  %5 = alloca ptr, align 8
  %6 = alloca ptr, align 8
  %7 = alloca i32, align 4
  %8 = alloca ptr, align 8
  %9 = alloca i16, align 2
  %10 = alloca i32, align 4
  store ptr %0, ptr %4, align 8, !tbaa !11
  store ptr %1, ptr %5, align 8, !tbaa !99
  call void @llvm.lifetime.start.p0(i64 8, ptr %6) #8
  store ptr null, ptr %6, align 8, !tbaa !101
  call void @llvm.lifetime.start.p0(i64 4, ptr %7) #8
  store i32 0, ptr %7, align 4, !tbaa !86
  call void @llvm.lifetime.start.p0(i64 8, ptr %8) #8
  store ptr null, ptr %8, align 8, !tbaa !11
  call void @llvm.lifetime.start.p0(i64 2, ptr %9) #8
  %11 = load ptr, ptr %4, align 8, !tbaa !11
  %12 = icmp ne ptr %11, null
  br i1 %12, label %13, label %21

13:                                               ; preds = %2
  %14 = load ptr, ptr %4, align 8, !tbaa !11
  %15 = load i8, ptr %14, align 1, !tbaa !15
  %16 = sext i8 %15 to i32
  %17 = icmp ne i32 %16, 0
  br i1 %17, label %18, label %21

18:                                               ; preds = %13
  %19 = load ptr, ptr %5, align 8, !tbaa !99
  %20 = icmp ne ptr %19, null
  br i1 %20, label %22, label %21

21:                                               ; preds = %18, %13, %2
  store i32 0, ptr %3, align 4
  store i32 1, ptr %10, align 4
  br label %89

22:                                               ; preds = %18
  %23 = load ptr, ptr %4, align 8, !tbaa !11
  %24 = call ptr @TIFFOpen(ptr noundef %23, ptr noundef @.str.4)
  store ptr %24, ptr %6, align 8, !tbaa !101
  %25 = load ptr, ptr %6, align 8, !tbaa !101
  %26 = icmp eq ptr %25, null
  br i1 %26, label %27, label %28

27:                                               ; preds = %22
  store i32 0, ptr %3, align 4
  store i32 1, ptr %10, align 4
  br label %89

28:                                               ; preds = %22
  %29 = load ptr, ptr %6, align 8, !tbaa !101
  %30 = call i32 (ptr, i32, ...) @TIFFGetField(ptr noundef %29, i32 noundef 262, ptr noundef %9)
  %31 = load i16, ptr %9, align 2, !tbaa !36
  %32 = zext i16 %31 to i32
  %33 = icmp eq i32 %32, 8
  br i1 %33, label %38, label %34

34:                                               ; preds = %28
  %35 = load i16, ptr %9, align 2, !tbaa !36
  %36 = zext i16 %35 to i32
  %37 = icmp eq i32 %36, 9
  br i1 %37, label %38, label %61

38:                                               ; preds = %34, %28
  %39 = call ptr @dt_colorspaces_get_profile(i32 noundef 4, ptr noundef @.str.11, i32 noundef 63)
  %40 = getelementptr inbounds nuw %struct.dt_colorspaces_color_profile_t, ptr %39, i32 0, i32 3
  %41 = load ptr, ptr %40, align 8, !tbaa !92
  store ptr %41, ptr %8, align 8, !tbaa !11
  %42 = load ptr, ptr %8, align 8, !tbaa !11
  %43 = call i32 @cmsSaveProfileToMem(ptr noundef %42, ptr noundef null, ptr noundef %7)
  %44 = load i32, ptr %7, align 4, !tbaa !86
  %45 = icmp ugt i32 %44, 0
  br i1 %45, label %46, label %60

46:                                               ; preds = %38
  %47 = load i32, ptr %7, align 4, !tbaa !86
  %48 = zext i32 %47 to i64
  %49 = call noalias ptr @g_try_malloc(i64 noundef %48) #10
  %50 = load ptr, ptr %5, align 8, !tbaa !99
  store ptr %49, ptr %50, align 8, !tbaa !11
  %51 = load ptr, ptr %5, align 8, !tbaa !99
  %52 = load ptr, ptr %51, align 8, !tbaa !11
  %53 = icmp ne ptr %52, null
  br i1 %53, label %54, label %59

54:                                               ; preds = %46
  %55 = load ptr, ptr %8, align 8, !tbaa !11
  %56 = load ptr, ptr %5, align 8, !tbaa !99
  %57 = load ptr, ptr %56, align 8, !tbaa !11
  %58 = call i32 @cmsSaveProfileToMem(ptr noundef %55, ptr noundef %57, ptr noundef %7)
  br label %59

59:                                               ; preds = %54, %46
  br label %60

60:                                               ; preds = %59, %38
  br label %86

61:                                               ; preds = %34
  %62 = load ptr, ptr %6, align 8, !tbaa !101
  %63 = call i32 (ptr, i32, ...) @TIFFGetField(ptr noundef %62, i32 noundef 34675, ptr noundef %7, ptr noundef %8)
  %64 = icmp ne i32 %63, 0
  br i1 %64, label %65, label %84

65:                                               ; preds = %61
  %66 = load i32, ptr %7, align 4, !tbaa !86
  %67 = icmp ugt i32 %66, 0
  br i1 %67, label %68, label %83

68:                                               ; preds = %65
  %69 = load i32, ptr %7, align 4, !tbaa !86
  %70 = zext i32 %69 to i64
  %71 = call noalias ptr @g_try_malloc(i64 noundef %70) #10
  %72 = load ptr, ptr %5, align 8, !tbaa !99
  store ptr %71, ptr %72, align 8, !tbaa !11
  %73 = load ptr, ptr %5, align 8, !tbaa !99
  %74 = load ptr, ptr %73, align 8, !tbaa !11
  %75 = icmp ne ptr %74, null
  br i1 %75, label %76, label %82

76:                                               ; preds = %68
  %77 = load ptr, ptr %5, align 8, !tbaa !99
  %78 = load ptr, ptr %77, align 8, !tbaa !11
  %79 = load ptr, ptr %8, align 8, !tbaa !11
  %80 = load i32, ptr %7, align 4, !tbaa !86
  %81 = zext i32 %80 to i64
  call void @llvm.memcpy.p0.p0.i64(ptr align 1 %78, ptr align 1 %79, i64 %81, i1 false)
  br label %82

82:                                               ; preds = %76, %68
  br label %83

83:                                               ; preds = %82, %65
  br label %85

84:                                               ; preds = %61
  store i32 0, ptr %7, align 4, !tbaa !86
  br label %85

85:                                               ; preds = %84, %83
  br label %86

86:                                               ; preds = %85, %60
  %87 = load ptr, ptr %6, align 8, !tbaa !101
  call void @TIFFClose(ptr noundef %87)
  %88 = load i32, ptr %7, align 4, !tbaa !86
  store i32 %88, ptr %3, align 4
  store i32 1, ptr %10, align 4
  br label %89

89:                                               ; preds = %86, %27, %21
  call void @llvm.lifetime.end.p0(i64 2, ptr %9) #8
  call void @llvm.lifetime.end.p0(i64 8, ptr %8) #8
  call void @llvm.lifetime.end.p0(i64 4, ptr %7) #8
  call void @llvm.lifetime.end.p0(i64 8, ptr %6) #8
  %90 = load i32, ptr %3, align 4
  ret i32 %90
}