; Function Attrs: nounwind uwtable
define i32 @dt_imageio_tiff_read_profile(ptr noundef %0, ptr noundef writeonly %1) local_unnamed_addr #0 {
  %3 = alloca i32, align 4
  %4 = alloca ptr, align 8
  %5 = alloca i16, align 2
  call void @llvm.lifetime.start.p0(i64 4, ptr nonnull %3) #11
  store i32 0, ptr %3, align 4, !tbaa !86
  call void @llvm.lifetime.start.p0(i64 8, ptr nonnull %4) #11
  store ptr null, ptr %4, align 8, !tbaa !87
  call void @llvm.lifetime.start.p0(i64 2, ptr nonnull %5) #11
  %.not = icmp eq ptr %0, null
  br i1 %.not, label %42, label %6

6:                                                ; preds = %2
  %7 = load i8, ptr %0, align 1, !tbaa !6
  %8 = icmp ne i8 %7, 0
  %9 = icmp ne ptr %1, null
  %or.cond = and i1 %9, %8
  br i1 %or.cond, label %10, label %42

10:                                               ; preds = %6
  %11 = tail call ptr @TIFFOpen(ptr noundef nonnull %0, ptr noundef nonnull @.str.4) #11
  %12 = icmp eq ptr %11, null
  br i1 %12, label %42, label %13

13:                                               ; preds = %10
  %14 = call i32 (ptr, i32, ...) @TIFFGetField(ptr noundef nonnull %11, i32 noundef 262, ptr noundef nonnull %5) #11
  %15 = load i16, ptr %5, align 2, !tbaa !32
  %16 = and i16 %15, -2
  %or.cond4 = icmp eq i16 %16, 8
  br i1 %or.cond4, label %17, label %28

17:                                               ; preds = %13
  %18 = call ptr @dt_colorspaces_get_profile(i32 noundef 4, ptr noundef nonnull @.str.11, i32 noundef 63) #11
  %19 = getelementptr inbounds nuw i8, ptr %18, i64 1032
  %20 = load ptr, ptr %19, align 8, !tbaa !83
  store ptr %20, ptr %4, align 8, !tbaa !87
  %21 = call i32 @cmsSaveProfileToMem(ptr noundef %20, ptr noundef null, ptr noundef nonnull %3) #11
  %22 = load i32, ptr %3, align 4, !tbaa !86
  %.not28 = icmp eq i32 %22, 0
  br i1 %.not28, label %40, label %23

23:                                               ; preds = %17
  %24 = zext i32 %22 to i64
  %25 = call noalias ptr @g_try_malloc(i64 noundef %24) #13
  store ptr %25, ptr %1, align 8, !tbaa !87
  %.not29 = icmp eq ptr %25, null
  br i1 %.not29, label %40, label %26

26:                                               ; preds = %23
  %27 = call i32 @cmsSaveProfileToMem(ptr noundef %20, ptr noundef nonnull %25, ptr noundef nonnull %3) #11
  br label %40

28:                                               ; preds = %13
  %29 = call i32 (ptr, i32, ...) @TIFFGetField(ptr noundef nonnull %11, i32 noundef 34675, ptr noundef nonnull %3, ptr noundef nonnull %4) #11
  %.not25 = icmp eq i32 %29, 0
  br i1 %.not25, label %39, label %30

30:                                               ; preds = %28
  %31 = load i32, ptr %3, align 4, !tbaa !86
  %.not26 = icmp eq i32 %31, 0
  br i1 %.not26, label %40, label %32

32:                                               ; preds = %30
  %33 = zext i32 %31 to i64
  %34 = call noalias ptr @g_try_malloc(i64 noundef %33) #13
  store ptr %34, ptr %1, align 8, !tbaa !87
  %.not27 = icmp eq ptr %34, null
  br i1 %.not27, label %40, label %35

35:                                               ; preds = %32
  %36 = load ptr, ptr %4, align 8, !tbaa !87
  %37 = load i32, ptr %3, align 4, !tbaa !86
  %38 = zext i32 %37 to i64
  call void @llvm.memcpy.p0.p0.i64(ptr nonnull align 1 %34, ptr align 1 %36, i64 %38, i1 false)
  br label %40

39:                                               ; preds = %28
  store i32 0, ptr %3, align 4, !tbaa !86
  br label %40

40:                                               ; preds = %39, %32, %35, %30, %17, %26, %23
  call void @TIFFClose(ptr noundef nonnull %11) #11
  %41 = load i32, ptr %3, align 4, !tbaa !86
  br label %42

42:                                               ; preds = %10, %2, %6, %40
  %.0 = phi i32 [ %41, %40 ], [ 0, %6 ], [ 0, %2 ], [ 0, %10 ]
  call void @llvm.lifetime.end.p0(i64 2, ptr nonnull %5) #11
  call void @llvm.lifetime.end.p0(i64 8, ptr nonnull %4) #11
  call void @llvm.lifetime.end.p0(i64 4, ptr nonnull %3) #11
  ret i32 %.0
}